target datalayout = "e-m:e-p270:32:32-p271:32:32-p272:64:64-i64:64-i128:128-f80:128-n8:16:32:64-S128"
target triple = "x86_64-pc-linux-gnu"

%struct.cborObj = type { i32, i32, i64, i64 }

; Function Attrs: null_pointer_is_valid sspstrong uwtable
define internal void @cbor_info(ptr dead_on_unwind noalias writable sret(%struct.cborObj) align 8 %0, ptr noundef %1, i32 noundef %2) #0 {
  %4 = alloca ptr, align 8
  %5 = alloca i32, align 4
  %6 = alloca i32, align 4
  %7 = alloca i32, align 4
  store ptr %1, ptr %4, align 8
  store i32 %2, ptr %5, align 4
  call void @llvm.lifetime.start.p0(i64 4, ptr %6) #5
  store i32 0, ptr %6, align 4
  %8 = getelementptr inbounds nuw %struct.cborObj, ptr %0, i32 0, i32 0
  store i32 -1, ptr %8, align 8
  %9 = getelementptr inbounds nuw %struct.cborObj, ptr %0, i32 0, i32 1
  store i32 0, ptr %9, align 4
  %10 = getelementptr inbounds nuw %struct.cborObj, ptr %0, i32 0, i32 2
  store i64 0, ptr %10, align 8
  %11 = getelementptr inbounds nuw %struct.cborObj, ptr %0, i32 0, i32 3
  store i64 -1, ptr %11, align 8
  call void @llvm.lifetime.start.p0(i64 4, ptr %7) #5
  %12 = load ptr, ptr %4, align 8
  %13 = load i32, ptr %5, align 4
  %14 = call zeroext i8 @tvb_get_uint8(ptr noundef %12, i32 noundef %13)
  %15 = zext i8 %14 to i32
  store i32 %15, ptr %6, align 4
  %16 = load i32, ptr %5, align 4
  %17 = add i32 %16, 1
  store i32 %17, ptr %5, align 4
  %18 = getelementptr inbounds nuw %struct.cborObj, ptr %0, i32 0, i32 1
  %19 = load i32, ptr %18, align 4
  %20 = add i32 %19, 1
  store i32 %20, ptr %18, align 4
  %21 = load i32, ptr %6, align 4
  %22 = and i32 %21, 224
  %23 = ashr i32 %22, 5
  %24 = getelementptr inbounds nuw %struct.cborObj, ptr %0, i32 0, i32 0
  store i32 %23, ptr %24, align 8
  %25 = load i32, ptr %6, align 4
  %26 = and i32 %25, 31
  store i32 %26, ptr %7, align 4
  %27 = getelementptr inbounds nuw %struct.cborObj, ptr %0, i32 0, i32 0
  %28 = load i32, ptr %27, align 8
  switch i32 %28, label %303 [
    i32 0, label %29
    i32 2, label %93
    i32 3, label %160
    i32 4, label %227
    i32 6, label %288
    i32 1, label %302
    i32 7, label %302
  ]

29:                                               ; preds = %3
  %30 = load i32, ptr %7, align 4
  %31 = icmp slt i32 %30, 24
  br i1 %31, label %32, label %37

32:                                               ; preds = %29
  %33 = load i32, ptr %6, align 4
  %34 = and i32 %33, 31
  %35 = sext i32 %34 to i64
  %36 = getelementptr inbounds nuw %struct.cborObj, ptr %0, i32 0, i32 3
  store i64 %35, ptr %36, align 8
  br label %88

37:                                               ; preds = %29
  %38 = load i32, ptr %7, align 4
  %39 = icmp eq i32 %38, 24
  br i1 %39, label %40, label %49

40:                                               ; preds = %37
  %41 = load ptr, ptr %4, align 8
  %42 = load i32, ptr %5, align 4
  %43 = call zeroext i8 @tvb_get_uint8(ptr noundef %41, i32 noundef %42)
  %44 = zext i8 %43 to i64
  %45 = getelementptr inbounds nuw %struct.cborObj, ptr %0, i32 0, i32 3
  store i64 %44, ptr %45, align 8
  %46 = getelementptr inbounds nuw %struct.cborObj, ptr %0, i32 0, i32 1
  %47 = load i32, ptr %46, align 4
  %48 = add i32 %47, 1
  store i32 %48, ptr %46, align 4
  br label %87

49:                                               ; preds = %37
  %50 = load i32, ptr %7, align 4
  %51 = icmp eq i32 %50, 25
  br i1 %51, label %52, label %61

52:                                               ; preds = %49
  %53 = load ptr, ptr %4, align 8
  %54 = load i32, ptr %5, align 4
  %55 = call zeroext i16 @tvb_get_uint16(ptr noundef %53, i32 noundef %54, i32 noundef 0)
  %56 = zext i16 %55 to i64
  %57 = getelementptr inbounds nuw %struct.cborObj, ptr %0, i32 0, i32 3
  store i64 %56, ptr %57, align 8
  %58 = getelementptr inbounds nuw %struct.cborObj, ptr %0, i32 0, i32 1
  %59 = load i32, ptr %58, align 4
  %60 = add i32 %59, 2
  store i32 %60, ptr %58, align 4
  br label %86

61:                                               ; preds = %49
  %62 = load i32, ptr %7, align 4
  %63 = icmp eq i32 %62, 26
  br i1 %63, label %64, label %73

64:                                               ; preds = %61
  %65 = load ptr, ptr %4, align 8
  %66 = load i32, ptr %5, align 4
  %67 = call i32 @tvb_get_uint32(ptr noundef %65, i32 noundef %66, i32 noundef 0)
  %68 = zext i32 %67 to i64
  %69 = getelementptr inbounds nuw %struct.cborObj, ptr %0, i32 0, i32 3
  store i64 %68, ptr %69, align 8
  %70 = getelementptr inbounds nuw %struct.cborObj, ptr %0, i32 0, i32 1
  %71 = load i32, ptr %70, align 4
  %72 = add i32 %71, 4
  store i32 %72, ptr %70, align 4
  br label %85

73:                                               ; preds = %61
  %74 = load i32, ptr %7, align 4
  %75 = icmp eq i32 %74, 27
  br i1 %75, label %76, label %84

76:                                               ; preds = %73
  %77 = load ptr, ptr %4, align 8
  %78 = load i32, ptr %5, align 4
  %79 = call i64 @tvb_get_uint64(ptr noundef %77, i32 noundef %78, i32 noundef 0)
  %80 = getelementptr inbounds nuw %struct.cborObj, ptr %0, i32 0, i32 3
  store i64 %79, ptr %80, align 8
  %81 = getelementptr inbounds nuw %struct.cborObj, ptr %0, i32 0, i32 1
  %82 = load i32, ptr %81, align 4
  %83 = add i32 %82, 8
  store i32 %83, ptr %81, align 4
  br label %84

84:                                               ; preds = %76, %73
  br label %85

85:                                               ; preds = %84, %64
  br label %86

86:                                               ; preds = %85, %52
  br label %87

87:                                               ; preds = %86, %40
  br label %88

88:                                               ; preds = %87, %32
  %89 = getelementptr inbounds nuw %struct.cborObj, ptr %0, i32 0, i32 1
  %90 = load i32, ptr %89, align 4
  %91 = sext i32 %90 to i64
  %92 = getelementptr inbounds nuw %struct.cborObj, ptr %0, i32 0, i32 2
  store i64 %91, ptr %92, align 8
  br label %304

93:                                               ; preds = %3
  %94 = load i32, ptr %7, align 4
  %95 = icmp slt i32 %94, 24
  br i1 %95, label %96, label %101

96:                                               ; preds = %93
  %97 = load i32, ptr %6, align 4
  %98 = and i32 %97, 31
  %99 = sext i32 %98 to i64
  %100 = getelementptr inbounds nuw %struct.cborObj, ptr %0, i32 0, i32 3
  store i64 %99, ptr %100, align 8
  br label %152

101:                                              ; preds = %93
  %102 = load i32, ptr %7, align 4
  %103 = icmp eq i32 %102, 24
  br i1 %103, label %104, label %113

104:                                              ; preds = %101
  %105 = load ptr, ptr %4, align 8
  %106 = load i32, ptr %5, align 4
  %107 = call zeroext i8 @tvb_get_uint8(ptr noundef %105, i32 noundef %106)
  %108 = zext i8 %107 to i64
  %109 = getelementptr inbounds nuw %struct.cborObj, ptr %0, i32 0, i32 3
  store i64 %108, ptr %109, align 8
  %110 = getelementptr inbounds nuw %struct.cborObj, ptr %0, i32 0, i32 1
  %111 = load i32, ptr %110, align 4
  %112 = add i32 %111, 1
  store i32 %112, ptr %110, align 4
  br label %151

113:                                              ; preds = %101
  %114 = load i32, ptr %7, align 4
  %115 = icmp eq i32 %114, 25
  br i1 %115, label %116, label %125

116:                                              ; preds = %113
  %117 = load ptr, ptr %4, align 8
  %118 = load i32, ptr %5, align 4
  %119 = call zeroext i16 @tvb_get_uint16(ptr noundef %117, i32 noundef %118, i32 noundef 0)
  %120 = zext i16 %119 to i64
  %121 = getelementptr inbounds nuw %struct.cborObj, ptr %0, i32 0, i32 3
  store i64 %120, ptr %121, align 8
  %122 = getelementptr inbounds nuw %struct.cborObj, ptr %0, i32 0, i32 1
  %123 = load i32, ptr %122, align 4
  %124 = add i32 %123, 2
  store i32 %124, ptr %122, align 4
  br label %150

125:                                              ; preds = %113
  %126 = load i32, ptr %7, align 4
  %127 = icmp eq i32 %126, 26
  br i1 %127, label %128, label %137

128:                                              ; preds = %125
  %129 = load ptr, ptr %4, align 8
  %130 = load i32, ptr %5, align 4
  %131 = call i32 @tvb_get_uint32(ptr noundef %129, i32 noundef %130, i32 noundef 0)
  %132 = zext i32 %131 to i64
  %133 = getelementptr inbounds nuw %struct.cborObj, ptr %0, i32 0, i32 3
  store i64 %132, ptr %133, align 8
  %134 = getelementptr inbounds nuw %struct.cborObj, ptr %0, i32 0, i32 1
  %135 = load i32, ptr %134, align 4
  %136 = add i32 %135, 4
  store i32 %136, ptr %134, align 4
  br label %149

137:                                              ; preds = %125
  %138 = load i32, ptr %7, align 4
  %139 = icmp eq i32 %138, 27
  br i1 %139, label %140, label %148

140:                                              ; preds = %137
  %141 = load ptr, ptr %4, align 8
  %142 = load i32, ptr %5, align 4
  %143 = call i64 @tvb_get_uint64(ptr noundef %141, i32 noundef %142, i32 noundef 0)
  %144 = getelementptr inbounds nuw %struct.cborObj, ptr %0, i32 0, i32 3
  store i64 %143, ptr %144, align 8
  %145 = getelementptr inbounds nuw %struct.cborObj, ptr %0, i32 0, i32 1
  %146 = load i32, ptr %145, align 4
  %147 = add i32 %146, 8
  store i32 %147, ptr %145, align 4
  br label %148

148:                                              ; preds = %140, %137
  br label %149

149:                                              ; preds = %148, %128
  br label %150

150:                                              ; preds = %149, %116
  br label %151

151:                                              ; preds = %150, %104
  br label %152

152:                                              ; preds = %151, %96
  %153 = getelementptr inbounds nuw %struct.cborObj, ptr %0, i32 0, i32 1
  %154 = load i32, ptr %153, align 4
  %155 = sext i32 %154 to i64
  %156 = getelementptr inbounds nuw %struct.cborObj, ptr %0, i32 0, i32 3
  %157 = load i64, ptr %156, align 8
  %158 = add i64 %155, %157
  %159 = getelementptr inbounds nuw %struct.cborObj, ptr %0, i32 0, i32 2
  store i64 %158, ptr %159, align 8
  br label %304

160:                                              ; preds = %3
  %161 = load i32, ptr %7, align 4
  %162 = icmp slt i32 %161, 24
  br i1 %162, label %163, label %168

163:                                              ; preds = %160
  %164 = load i32, ptr %6, align 4
  %165 = and i32 %164, 31
  %166 = sext i32 %165 to i64
  %167 = getelementptr inbounds nuw %struct.cborObj, ptr %0, i32 0, i32 3
  store i64 %166, ptr %167, align 8
  br label %219

168:                                              ; preds = %160
  %169 = load i32, ptr %7, align 4
  %170 = icmp eq i32 %169, 24
  br i1 %170, label %171, label %180

171:                                              ; preds = %168
  %172 = load ptr, ptr %4, align 8
  %173 = load i32, ptr %5, align 4
  %174 = call zeroext i8 @tvb_get_uint8(ptr noundef %172, i32 noundef %173)
  %175 = zext i8 %174 to i64
  %176 = getelementptr inbounds nuw %struct.cborObj, ptr %0, i32 0, i32 3
  store i64 %175, ptr %176, align 8
  %177 = getelementptr inbounds nuw %struct.cborObj, ptr %0, i32 0, i32 1
  %178 = load i32, ptr %177, align 4
  %179 = add i32 %178, 1
  store i32 %179, ptr %177, align 4
  br label %218

180:                                              ; preds = %168
  %181 = load i32, ptr %7, align 4
  %182 = icmp eq i32 %181, 25
  br i1 %182, label %183, label %192

183:                                              ; preds = %180
  %184 = load ptr, ptr %4, align 8
  %185 = load i32, ptr %5, align 4
  %186 = call zeroext i16 @tvb_get_uint16(ptr noundef %184, i32 noundef %185, i32 noundef 0)
  %187 = zext i16 %186 to i64
  %188 = getelementptr inbounds nuw %struct.cborObj, ptr %0, i32 0, i32 3
  store i64 %187, ptr %188, align 8
  %189 = getelementptr inbounds nuw %struct.cborObj, ptr %0, i32 0, i32 1
  %190 = load i32, ptr %189, align 4
  %191 = add i32 %190, 2
  store i32 %191, ptr %189, align 4
  br label %217

192:                                              ; preds = %180
  %193 = load i32, ptr %7, align 4
  %194 = icmp eq i32 %193, 26
  br i1 %194, label %195, label %204

195:                                              ; preds = %192
  %196 = load ptr, ptr %4, align 8
  %197 = load i32, ptr %5, align 4
  %198 = call i32 @tvb_get_uint32(ptr noundef %196, i32 noundef %197, i32 noundef 0)
  %199 = zext i32 %198 to i64
  %200 = getelementptr inbounds nuw %struct.cborObj, ptr %0, i32 0, i32 3
  store i64 %199, ptr %200, align 8
  %201 = getelementptr inbounds nuw %struct.cborObj, ptr %0, i32 0, i32 1
  %202 = load i32, ptr %201, align 4
  %203 = add i32 %202, 4
  store i32 %203, ptr %201, align 4
  br label %216

204:                                              ; preds = %192
  %205 = load i32, ptr %7, align 4
  %206 = icmp eq i32 %205, 27
  br i1 %206, label %207, label %215

207:                                              ; preds = %204
  %208 = load ptr, ptr %4, align 8
  %209 = load i32, ptr %5, align 4
  %210 = call i64 @tvb_get_uint64(ptr noundef %208, i32 noundef %209, i32 noundef 0)
  %211 = getelementptr inbounds nuw %struct.cborObj, ptr %0, i32 0, i32 3
  store i64 %210, ptr %211, align 8
  %212 = getelementptr inbounds nuw %struct.cborObj, ptr %0, i32 0, i32 1
  %213 = load i32, ptr %212, align 4
  %214 = add i32 %213, 8
  store i32 %214, ptr %212, align 4
  br label %215

215:                                              ; preds = %207, %204
  br label %216

216:                                              ; preds = %215, %195
  br label %217

217:                                              ; preds = %216, %183
  br label %218

218:                                              ; preds = %217, %171
  br label %219

219:                                              ; preds = %218, %163
  %220 = getelementptr inbounds nuw %struct.cborObj, ptr %0, i32 0, i32 1
  %221 = load i32, ptr %220, align 4
  %222 = sext i32 %221 to i64
  %223 = getelementptr inbounds nuw %struct.cborObj, ptr %0, i32 0, i32 3
  %224 = load i64, ptr %223, align 8
  %225 = add i64 %222, %224
  %226 = getelementptr inbounds nuw %struct.cborObj, ptr %0, i32 0, i32 2
  store i64 %225, ptr %226, align 8
  br label %304

227:                                              ; preds = %3
  %228 = load i32, ptr %7, align 4
  %229 = icmp slt i32 %228, 24
  br i1 %229, label %230, label %235

230:                                              ; preds = %227
  %231 = load i32, ptr %6, align 4
  %232 = and i32 %231, 31
  %233 = sext i32 %232 to i64
  %234 = getelementptr inbounds nuw %struct.cborObj, ptr %0, i32 0, i32 3
  store i64 %233, ptr %234, align 8
  br label %286

235:                                              ; preds = %227
  %236 = load i32, ptr %7, align 4
  %237 = icmp eq i32 %236, 24
  br i1 %237, label %238, label %247

238:                                              ; preds = %235
  %239 = load ptr, ptr %4, align 8
  %240 = load i32, ptr %5, align 4
  %241 = call zeroext i8 @tvb_get_uint8(ptr noundef %239, i32 noundef %240)
  %242 = zext i8 %241 to i64
  %243 = getelementptr inbounds nuw %struct.cborObj, ptr %0, i32 0, i32 3
  store i64 %242, ptr %243, align 8
  %244 = getelementptr inbounds nuw %struct.cborObj, ptr %0, i32 0, i32 1
  %245 = load i32, ptr %244, align 4
  %246 = add i32 %245, 1
  store i32 %246, ptr %244, align 4
  br label %285

247:                                              ; preds = %235
  %248 = load i32, ptr %7, align 4
  %249 = icmp eq i32 %248, 25
  br i1 %249, label %250, label %259

250:                                              ; preds = %247
  %251 = load ptr, ptr %4, align 8
  %252 = load i32, ptr %5, align 4
  %253 = call zeroext i16 @tvb_get_uint16(ptr noundef %251, i32 noundef %252, i32 noundef 0)
  %254 = zext i16 %253 to i64
  %255 = getelementptr inbounds nuw %struct.cborObj, ptr %0, i32 0, i32 3
  store i64 %254, ptr %255, align 8
  %256 = getelementptr inbounds nuw %struct.cborObj, ptr %0, i32 0, i32 1
  %257 = load i32, ptr %256, align 4
  %258 = add i32 %257, 2
  store i32 %258, ptr %256, align 4
  br label %284

259:                                              ; preds = %247
  %260 = load i32, ptr %7, align 4
  %261 = icmp eq i32 %260, 26
  br i1 %261, label %262, label %271

262:                                              ; preds = %259
  %263 = load ptr, ptr %4, align 8
  %264 = load i32, ptr %5, align 4
  %265 = call i32 @tvb_get_uint32(ptr noundef %263, i32 noundef %264, i32 noundef 0)
  %266 = zext i32 %265 to i64
  %267 = getelementptr inbounds nuw %struct.cborObj, ptr %0, i32 0, i32 3
  store i64 %266, ptr %267, align 8
  %268 = getelementptr inbounds nuw %struct.cborObj, ptr %0, i32 0, i32 1
  %269 = load i32, ptr %268, align 4
  %270 = add i32 %269, 4
  store i32 %270, ptr %268, align 4
  br label %283

271:                                              ; preds = %259
  %272 = load i32, ptr %7, align 4
  %273 = icmp eq i32 %272, 27
  br i1 %273, label %274, label %282

274:                                              ; preds = %271
  %275 = load ptr, ptr %4, align 8
  %276 = load i32, ptr %5, align 4
  %277 = call i64 @tvb_get_uint64(ptr noundef %275, i32 noundef %276, i32 noundef 0)
  %278 = getelementptr inbounds nuw %struct.cborObj, ptr %0, i32 0, i32 3
  store i64 %277, ptr %278, align 8
  %279 = getelementptr inbounds nuw %struct.cborObj, ptr %0, i32 0, i32 1
  %280 = load i32, ptr %279, align 4
  %281 = add i32 %280, 8
  store i32 %281, ptr %279, align 4
  br label %282

282:                                              ; preds = %274, %271
  br label %283

283:                                              ; preds = %282, %262
  br label %284

284:                                              ; preds = %283, %250
  br label %285

285:                                              ; preds = %284, %238
  br label %286

286:                                              ; preds = %285, %230
  %287 = getelementptr inbounds nuw %struct.cborObj, ptr %0, i32 0, i32 2
  store i64 -1, ptr %287, align 8
  br label %304

288:                                              ; preds = %3
  %289 = load i32, ptr %7, align 4
  %290 = icmp slt i32 %289, 24
  br i1 %290, label %291, label %296

291:                                              ; preds = %288
  %292 = load i32, ptr %6, align 4
  %293 = and i32 %292, 31
  %294 = sext i32 %293 to i64
  %295 = getelementptr inbounds nuw %struct.cborObj, ptr %0, i32 0, i32 3
  store i64 %294, ptr %295, align 8
  br label %296

296:                                              ; preds = %291, %288
  %297 = getelementptr inbounds nuw %struct.cborObj, ptr %0, i32 0, i32 3
  %298 = load i64, ptr %297, align 8
  %299 = getelementptr inbounds nuw %struct.cborObj, ptr %0, i32 0, i32 2
  %300 = load i64, ptr %299, align 8
  %301 = add i64 %300, %298
  store i64 %301, ptr %299, align 8
  br label %304

302:                                              ; preds = %3, %3
  br label %303

303:                                              ; preds = %3, %302
  br label %304

304:                                              ; preds = %303, %296, %286, %219, %152, %88
  call void @llvm.lifetime.end.p0(i64 4, ptr %7) #5
  call void @llvm.lifetime.end.p0(i64 4, ptr %6) #5
  ret void
}