; Function Attrs: null_pointer_is_valid sspstrong uwtable
define internal fastcc void @cbor_info(ptr dead_on_unwind noalias writable writeonly align 8 captures(none) initializes((0, 24)) %0, ptr noundef %1, i32 noundef %2) unnamed_addr #0 {
  %4 = getelementptr inbounds nuw i8, ptr %0, i64 4
  %5 = getelementptr inbounds nuw i8, ptr %0, i64 8
  store i64 0, ptr %5, align 8
  %6 = getelementptr inbounds nuw i8, ptr %0, i64 16
  store i64 -1, ptr %6, align 8
  %7 = tail call zeroext i8 @tvb_get_uint8(ptr noundef %1, i32 noundef %2)
  %8 = zext i8 %7 to i32
  %9 = add i32 %2, 1
  store i32 1, ptr %4, align 4
  %10 = lshr i32 %8, 5
  store i32 %10, ptr %0, align 8
  %11 = and i32 %8, 31
  switch i32 %10, label %88 [
    i32 0, label %12
    i32 2, label %28
    i32 3, label %48
    i32 4, label %68
    i32 6, label %84
  ]

12:                                               ; preds = %3
  %13 = icmp samesign ult i32 %11, 24
  br i1 %13, label %14, label %16

14:                                               ; preds = %12
  %15 = zext nneg i32 %11 to i64
  store i64 %15, ptr %6, align 8
  br label %.sink.split

16:                                               ; preds = %12
  switch i32 %11, label %.sink.split [
    i32 24, label %17
    i32 25, label %20
    i32 26, label %23
    i32 27, label %26
  ]

17:                                               ; preds = %16
  %18 = tail call zeroext i8 @tvb_get_uint8(ptr noundef %1, i32 noundef %9)
  %19 = zext i8 %18 to i64
  store i64 %19, ptr %6, align 8
  store i32 2, ptr %4, align 4
  br label %.sink.split

20:                                               ; preds = %16
  %21 = tail call zeroext i16 @tvb_get_uint16(ptr noundef %1, i32 noundef %9, i32 noundef 0)
  %22 = zext i16 %21 to i64
  store i64 %22, ptr %6, align 8
  store i32 3, ptr %4, align 4
  br label %.sink.split

23:                                               ; preds = %16
  %24 = tail call i32 @tvb_get_uint32(ptr noundef %1, i32 noundef %9, i32 noundef 0)
  %25 = zext i32 %24 to i64
  store i64 %25, ptr %6, align 8
  store i32 5, ptr %4, align 4
  br label %.sink.split

26:                                               ; preds = %16
  %27 = tail call i64 @tvb_get_uint64(ptr noundef %1, i32 noundef %9, i32 noundef 0)
  store i64 %27, ptr %6, align 8
  store i32 9, ptr %4, align 4
  br label %.sink.split

28:                                               ; preds = %3
  %29 = icmp samesign ult i32 %11, 24
  br i1 %29, label %30, label %32

30:                                               ; preds = %28
  %31 = zext nneg i32 %11 to i64
  store i64 %31, ptr %6, align 8
  br label %44

32:                                               ; preds = %28
  switch i32 %11, label %44 [
    i32 24, label %33
    i32 25, label %36
    i32 26, label %39
    i32 27, label %42
  ]

33:                                               ; preds = %32
  %34 = tail call zeroext i8 @tvb_get_uint8(ptr noundef %1, i32 noundef %9)
  %35 = zext i8 %34 to i64
  store i64 %35, ptr %6, align 8
  store i32 2, ptr %4, align 4
  br label %44

36:                                               ; preds = %32
  %37 = tail call zeroext i16 @tvb_get_uint16(ptr noundef %1, i32 noundef %9, i32 noundef 0)
  %38 = zext i16 %37 to i64
  store i64 %38, ptr %6, align 8
  store i32 3, ptr %4, align 4
  br label %44

39:                                               ; preds = %32
  %40 = tail call i32 @tvb_get_uint32(ptr noundef %1, i32 noundef %9, i32 noundef 0)
  %41 = zext i32 %40 to i64
  store i64 %41, ptr %6, align 8
  store i32 5, ptr %4, align 4
  br label %44

42:                                               ; preds = %32
  %43 = tail call i64 @tvb_get_uint64(ptr noundef %1, i32 noundef %9, i32 noundef 0)
  store i64 %43, ptr %6, align 8
  store i32 9, ptr %4, align 4
  br label %44

44:                                               ; preds = %32, %33, %39, %42, %36, %30
  %45 = phi i64 [ -1, %32 ], [ %35, %33 ], [ %41, %39 ], [ %43, %42 ], [ %38, %36 ], [ %31, %30 ]
  %46 = phi i64 [ 1, %32 ], [ 2, %33 ], [ 5, %39 ], [ 9, %42 ], [ 3, %36 ], [ 1, %30 ]
  %47 = add i64 %45, %46
  br label %.sink.split

48:                                               ; preds = %3
  %49 = icmp samesign ult i32 %11, 24
  br i1 %49, label %50, label %52

50:                                               ; preds = %48
  %51 = zext nneg i32 %11 to i64
  store i64 %51, ptr %6, align 8
  br label %64

52:                                               ; preds = %48
  switch i32 %11, label %64 [
    i32 24, label %53
    i32 25, label %56
    i32 26, label %59
    i32 27, label %62
  ]

53:                                               ; preds = %52
  %54 = tail call zeroext i8 @tvb_get_uint8(ptr noundef %1, i32 noundef %9)
  %55 = zext i8 %54 to i64
  store i64 %55, ptr %6, align 8
  store i32 2, ptr %4, align 4
  br label %64

56:                                               ; preds = %52
  %57 = tail call zeroext i16 @tvb_get_uint16(ptr noundef %1, i32 noundef %9, i32 noundef 0)
  %58 = zext i16 %57 to i64
  store i64 %58, ptr %6, align 8
  store i32 3, ptr %4, align 4
  br label %64

59:                                               ; preds = %52
  %60 = tail call i32 @tvb_get_uint32(ptr noundef %1, i32 noundef %9, i32 noundef 0)
  %61 = zext i32 %60 to i64
  store i64 %61, ptr %6, align 8
  store i32 5, ptr %4, align 4
  br label %64

62:                                               ; preds = %52
  %63 = tail call i64 @tvb_get_uint64(ptr noundef %1, i32 noundef %9, i32 noundef 0)
  store i64 %63, ptr %6, align 8
  store i32 9, ptr %4, align 4
  br label %64

64:                                               ; preds = %52, %53, %59, %62, %56, %50
  %65 = phi i64 [ -1, %52 ], [ %55, %53 ], [ %61, %59 ], [ %63, %62 ], [ %58, %56 ], [ %51, %50 ]
  %66 = phi i64 [ 1, %52 ], [ 2, %53 ], [ 5, %59 ], [ 9, %62 ], [ 3, %56 ], [ 1, %50 ]
  %67 = add i64 %65, %66
  br label %.sink.split

68:                                               ; preds = %3
  %69 = icmp samesign ult i32 %11, 24
  br i1 %69, label %70, label %72

70:                                               ; preds = %68
  %71 = zext nneg i32 %11 to i64
  store i64 %71, ptr %6, align 8
  br label %.sink.split

72:                                               ; preds = %68
  switch i32 %11, label %.sink.split [
    i32 24, label %73
    i32 25, label %76
    i32 26, label %79
    i32 27, label %82
  ]

73:                                               ; preds = %72
  %74 = tail call zeroext i8 @tvb_get_uint8(ptr noundef %1, i32 noundef %9)
  %75 = zext i8 %74 to i64
  store i64 %75, ptr %6, align 8
  store i32 2, ptr %4, align 4
  br label %.sink.split

76:                                               ; preds = %72
  %77 = tail call zeroext i16 @tvb_get_uint16(ptr noundef %1, i32 noundef %9, i32 noundef 0)
  %78 = zext i16 %77 to i64
  store i64 %78, ptr %6, align 8
  store i32 3, ptr %4, align 4
  br label %.sink.split

79:                                               ; preds = %72
  %80 = tail call i32 @tvb_get_uint32(ptr noundef %1, i32 noundef %9, i32 noundef 0)
  %81 = zext i32 %80 to i64
  store i64 %81, ptr %6, align 8
  store i32 5, ptr %4, align 4
  br label %.sink.split

82:                                               ; preds = %72
  %83 = tail call i64 @tvb_get_uint64(ptr noundef %1, i32 noundef %9, i32 noundef 0)
  store i64 %83, ptr %6, align 8
  store i32 9, ptr %4, align 4
  br label %.sink.split

84:                                               ; preds = %3
  %85 = icmp samesign ult i32 %11, 24
  br i1 %85, label %86, label %.sink.split

86:                                               ; preds = %84
  %87 = zext nneg i32 %11 to i64
  store i64 %87, ptr %6, align 8
  br label %.sink.split

.sink.split:                                      ; preds = %84, %86, %70, %76, %82, %79, %73, %72, %14, %20, %26, %23, %17, %16, %44, %64
  %.sink = phi i64 [ %67, %64 ], [ %47, %44 ], [ 1, %16 ], [ 2, %17 ], [ 5, %23 ], [ 9, %26 ], [ 3, %20 ], [ 1, %14 ], [ -1, %72 ], [ -1, %73 ], [ -1, %79 ], [ -1, %82 ], [ -1, %76 ], [ -1, %70 ], [ %87, %86 ], [ -1, %84 ]
  store i64 %.sink, ptr %5, align 8
  br label %88

88:                                               ; preds = %.sink.split, %3
  ret void
}